(dp1
S'bicycle'
p2
I747
sS'pottedplant'
p3
I1053
sS'tvmonitor'
p4
I778
sS'chair'
p5
I2627
sS'boat'
p6
I925
sS'sheep'
p7
I941
sS'horse'
p8
I693
sS'motorbike'
p9
I668
sS'bird'
p10
I1082
sS'head'
p11
I788
sS'aeroplane'
p12
I882
sS'bus'
p13
I589
sS'hand'
p14
I1277
sS'train'
p15
I617
sS'foot'
p16
I559
sS'diningtable'
p17
I692
sS'cow'
p18
I680
sS'car'
p19
I2104
sS'dog'
p20
I1351
sS'cat'
p21
I1090
sS'person'
p22
I14868
sS'bottle'
p23
I1300
sS'sofa'
p24
I726
s.